target datalayout = "e-m:e-p270:32:32-p271:32:32-p272:64:64-i64:64-i128:128-f80:128-n8:16:32:64-S128"
target triple = "x86_64-pc-linux-gnu"

%struct.archive_read = type { %struct.archive, ptr, i32, i64, i64, %struct.archive_read_client, [16 x %struct.archive_read_filter_bidder], ptr, i32, i64, i32, i32, [16 x %struct.archive_format_descriptor], ptr, ptr, ptr, %struct.anon }
%struct.archive = type { i32, i32, ptr, i32, ptr, i32, i32, ptr, %struct.archive_string, ptr, i32, i32, ptr, ptr, i64, i64, i64, i8, i64 }
%struct.archive_string = type { ptr, i64, i64 }
%struct.archive_read_client = type { ptr, ptr, ptr, ptr, ptr, ptr, i32, i32, i64, ptr }
%struct.archive_read_filter_bidder = type { ptr, ptr, ptr }
%struct.archive_format_descriptor = type { ptr, ptr, ptr, ptr, ptr, ptr, ptr, ptr, ptr, ptr, ptr }
%struct.anon = type { ptr, ptr, i32, ptr, ptr }
%struct.archive_read_passphrase = type { ptr, ptr }

@.str = private unnamed_addr constant [28 x i8] c"archive_read_add_passphrase\00", align 1
@.str.1 = private unnamed_addr constant [33 x i8] c"Empty passphrase is unacceptable\00", align 1
@.str.3 = private unnamed_addr constant [22 x i8] c"Can't allocate memory\00", align 1

; Function Attrs: nounwind uwtable
define internal void @add_passphrase_to_tail(ptr noundef %0, ptr noundef %1) #0 {
  %3 = alloca ptr, align 8
  %4 = alloca ptr, align 8
  store ptr %0, ptr %3, align 8, !tbaa !11
  store ptr %1, ptr %4, align 8, !tbaa !16
  %5 = load ptr, ptr %4, align 8, !tbaa !16
  %6 = load ptr, ptr %3, align 8, !tbaa !11
  %7 = getelementptr inbounds nuw %struct.archive_read, ptr %6, i32 0, i32 16
  %8 = getelementptr inbounds nuw %struct.anon, ptr %7, i32 0, i32 1
  %9 = load ptr, ptr %8, align 8, !tbaa !20
  store ptr %5, ptr %9, align 8, !tbaa !16
  %10 = load ptr, ptr %4, align 8, !tbaa !16
  %11 = getelementptr inbounds nuw %struct.archive_read_passphrase, ptr %10, i32 0, i32 1
  %12 = load ptr, ptr %3, align 8, !tbaa !11
  %13 = getelementptr inbounds nuw %struct.archive_read, ptr %12, i32 0, i32 16
  %14 = getelementptr inbounds nuw %struct.anon, ptr %13, i32 0, i32 1
  store ptr %11, ptr %14, align 8, !tbaa !20
  %15 = load ptr, ptr %4, align 8, !tbaa !16
  %16 = getelementptr inbounds nuw %struct.archive_read_passphrase, ptr %15, i32 0, i32 1
  store ptr null, ptr %16, align 8, !tbaa !35
  ret void
}

; Function Attrs: nounwind uwtable
define internal ptr @new_read_passphrase(ptr noundef %0, ptr noundef %1) #0 {
  %3 = alloca ptr, align 8
  %4 = alloca ptr, align 8
  %5 = alloca ptr, align 8
  %6 = alloca ptr, align 8
  %7 = alloca i32, align 4
  store ptr %0, ptr %4, align 8, !tbaa !11
  store ptr %1, ptr %5, align 8, !tbaa !9
  call void @llvm.lifetime.start.p0(i64 8, ptr %6) #5
  %8 = call noalias ptr @malloc(i64 noundef 16) #6
  store ptr %8, ptr %6, align 8, !tbaa !16
  %9 = load ptr, ptr %6, align 8, !tbaa !16
  %10 = icmp eq ptr %9, null
  br i1 %10, label %11, label %14

11:                                               ; preds = %2
  %12 = load ptr, ptr %4, align 8, !tbaa !11
  %13 = getelementptr inbounds nuw %struct.archive_read, ptr %12, i32 0, i32 0
  call void (ptr, i32, ptr, ...) @archive_set_error(ptr noundef %13, i32 noundef 12, ptr noundef @.str.3)
  store ptr null, ptr %3, align 8
  store i32 1, ptr %7, align 4
  br label %29

14:                                               ; preds = %2
  %15 = load ptr, ptr %5, align 8, !tbaa !9
  %16 = call noalias ptr @strdup(ptr noundef %15) #5
  %17 = load ptr, ptr %6, align 8, !tbaa !16
  %18 = getelementptr inbounds nuw %struct.archive_read_passphrase, ptr %17, i32 0, i32 0
  store ptr %16, ptr %18, align 8, !tbaa !18
  %19 = load ptr, ptr %6, align 8, !tbaa !16
  %20 = getelementptr inbounds nuw %struct.archive_read_passphrase, ptr %19, i32 0, i32 0
  %21 = load ptr, ptr %20, align 8, !tbaa !18
  %22 = icmp eq ptr %21, null
  br i1 %22, label %23, label %27

23:                                               ; preds = %14
  %24 = load ptr, ptr %6, align 8, !tbaa !16
  call void @free(ptr noundef %24) #5
  %25 = load ptr, ptr %4, align 8, !tbaa !11
  %26 = getelementptr inbounds nuw %struct.archive_read, ptr %25, i32 0, i32 0
  call void (ptr, i32, ptr, ...) @archive_set_error(ptr noundef %26, i32 noundef 12, ptr noundef @.str.3)
  store ptr null, ptr %3, align 8
  store i32 1, ptr %7, align 4
  br label %29

27:                                               ; preds = %14
  %28 = load ptr, ptr %6, align 8, !tbaa !16
  store ptr %28, ptr %3, align 8
  store i32 1, ptr %7, align 4
  br label %29

29:                                               ; preds = %27, %23, %11
  call void @llvm.lifetime.end.p0(i64 8, ptr %6) #5
  %30 = load ptr, ptr %3, align 8
  ret ptr %30
}

; Function Attrs: nounwind uwtable
define dso_local i32 @archive_read_add_passphrase(ptr noundef %0, ptr noundef %1) #0 {
  %3 = alloca i32, align 4
  %4 = alloca ptr, align 8
  %5 = alloca ptr, align 8
  %6 = alloca ptr, align 8
  %7 = alloca ptr, align 8
  %8 = alloca i32, align 4
  %9 = alloca i32, align 4
  store ptr %0, ptr %4, align 8, !tbaa !4
  store ptr %1, ptr %5, align 8, !tbaa !9
  call void @llvm.lifetime.start.p0(i64 8, ptr %6) #5
  %10 = load ptr, ptr %4, align 8, !tbaa !4
  store ptr %10, ptr %6, align 8, !tbaa !11
  call void @llvm.lifetime.start.p0(i64 8, ptr %7) #5
  br label %11

11:                                               ; preds = %2
  call void @llvm.lifetime.start.p0(i64 4, ptr %8) #5
  %12 = load ptr, ptr %4, align 8, !tbaa !4
  %13 = call i32 @__archive_check_magic(ptr noundef %12, i32 noundef 14594245, i32 noundef 1, ptr noundef @.str)
  store i32 %13, ptr %8, align 4, !tbaa !13
  %14 = load i32, ptr %8, align 4, !tbaa !13
  %15 = icmp eq i32 %14, -30
  br i1 %15, label %16, label %17

16:                                               ; preds = %11
  store i32 -30, ptr %3, align 4
  store i32 1, ptr %9, align 4
  br label %18

17:                                               ; preds = %11
  store i32 0, ptr %9, align 4
  br label %18

18:                                               ; preds = %17, %16
  call void @llvm.lifetime.end.p0(i64 4, ptr %8) #5
  %19 = load i32, ptr %9, align 4
  switch i32 %19, label %44 [
    i32 0, label %20
  ]

20:                                               ; preds = %18
  br label %21

21:                                               ; preds = %20
  br label %22

22:                                               ; preds = %21
  %23 = load ptr, ptr %5, align 8, !tbaa !9
  %24 = icmp eq ptr %23, null
  br i1 %24, label %31, label %25

25:                                               ; preds = %22
  %26 = load ptr, ptr %5, align 8, !tbaa !9
  %27 = getelementptr inbounds i8, ptr %26, i64 0
  %28 = load i8, ptr %27, align 1, !tbaa !15
  %29 = sext i8 %28 to i32
  %30 = icmp eq i32 %29, 0
  br i1 %30, label %31, label %34

31:                                               ; preds = %25, %22
  %32 = load ptr, ptr %6, align 8, !tbaa !11
  %33 = getelementptr inbounds nuw %struct.archive_read, ptr %32, i32 0, i32 0
  call void (ptr, i32, ptr, ...) @archive_set_error(ptr noundef %33, i32 noundef -1, ptr noundef @.str.1)
  store i32 -25, ptr %3, align 4
  store i32 1, ptr %9, align 4
  br label %44

34:                                               ; preds = %25
  %35 = load ptr, ptr %6, align 8, !tbaa !11
  %36 = load ptr, ptr %5, align 8, !tbaa !9
  %37 = call ptr @new_read_passphrase(ptr noundef %35, ptr noundef %36)
  store ptr %37, ptr %7, align 8, !tbaa !16
  %38 = load ptr, ptr %7, align 8, !tbaa !16
  %39 = icmp eq ptr %38, null
  br i1 %39, label %40, label %41

40:                                               ; preds = %34
  store i32 -30, ptr %3, align 4
  store i32 1, ptr %9, align 4
  br label %44

41:                                               ; preds = %34
  %42 = load ptr, ptr %6, align 8, !tbaa !11
  %43 = load ptr, ptr %7, align 8, !tbaa !16
  call void @add_passphrase_to_tail(ptr noundef %42, ptr noundef %43)
  store i32 0, ptr %3, align 4
  store i32 1, ptr %9, align 4
  br label %44

44:                                               ; preds = %41, %40, %31, %18
  call void @llvm.lifetime.end.p0(i64 8, ptr %7) #5
  call void @llvm.lifetime.end.p0(i64 8, ptr %6) #5
  %45 = load i32, ptr %3, align 4
  ret i32 %45
}