; Function Attrs: nounwind uwtable
define dso_local range(i32 -30, 1) i32 @archive_read_add_passphrase(ptr noundef %0, ptr noundef readonly %1) local_unnamed_addr #0 {
  %3 = tail call i32 @__archive_check_magic(ptr noundef %0, i32 noundef 14594245, i32 noundef 1, ptr noundef nonnull @.str) #6
  %.not = icmp eq i32 %3, -30
  br i1 %.not, label %20, label %4

4:                                                ; preds = %2
  %5 = icmp eq ptr %1, null
  br i1 %5, label %9, label %6

6:                                                ; preds = %4
  %7 = load i8, ptr %1, align 1, !tbaa !4
  %8 = icmp eq i8 %7, 0
  br i1 %8, label %9, label %10

9:                                                ; preds = %6, %4
  tail call void (ptr, i32, ptr, ...) @archive_set_error(ptr noundef %0, i32 noundef -1, ptr noundef nonnull @.str.1) #6
  br label %20

10:                                               ; preds = %6
  %11 = tail call noalias dereferenceable_or_null(16) ptr @malloc(i64 noundef 16) #7
  %12 = icmp eq ptr %11, null
  br i1 %12, label %new_read_passphrase.exit.thread, label %13

13:                                               ; preds = %10
  %14 = tail call noalias ptr @strdup(ptr noundef nonnull readonly %1) #6
  store ptr %14, ptr %11, align 8, !tbaa !7
  %15 = icmp eq ptr %14, null
  br i1 %15, label %16, label %new_read_passphrase.exit

16:                                               ; preds = %13
  tail call void @free(ptr noundef nonnull %11) #6
  br label %new_read_passphrase.exit.thread

new_read_passphrase.exit.thread:                  ; preds = %10, %16
  tail call void (ptr, i32, ptr, ...) @archive_set_error(ptr noundef %0, i32 noundef 12, ptr noundef nonnull @.str.3) #6
  br label %20

new_read_passphrase.exit:                         ; preds = %13
  %17 = getelementptr inbounds nuw i8, ptr %0, i64 2104
  %18 = load ptr, ptr %17, align 8, !tbaa !12
  store ptr %11, ptr %18, align 8, !tbaa !28
  %19 = getelementptr inbounds nuw i8, ptr %11, i64 8
  store ptr %19, ptr %17, align 8, !tbaa !12
  store ptr null, ptr %19, align 8, !tbaa !29
  br label %20

20:                                               ; preds = %new_read_passphrase.exit.thread, %2, %new_read_passphrase.exit, %9
  %.1 = phi i32 [ -25, %9 ], [ 0, %new_read_passphrase.exit ], [ -30, %2 ], [ -30, %new_read_passphrase.exit.thread ]
  ret i32 %.1
}